target datalayout = "e-m:e-p270:32:32-p271:32:32-p272:64:64-i64:64-i128:128-f80:128-n8:16:32:64-S128"
target triple = "x86_64-pc-linux-gnu"

; Function Attrs: nounwind uwtable
define internal void @inv_predict_5(ptr noundef %0, ptr noundef %1, ptr noundef %2, ptr noundef %3, ptr noundef %4) #1 {
  %6 = alloca ptr, align 8
  %7 = alloca ptr, align 8
  %8 = alloca ptr, align 8
  %9 = alloca ptr, align 8
  %10 = alloca ptr, align 8
  store ptr %0, ptr %6, align 8, !tbaa !82
  store ptr %1, ptr %7, align 8, !tbaa !82
  store ptr %2, ptr %8, align 8, !tbaa !82
  store ptr %3, ptr %9, align 8, !tbaa !82
  store ptr %4, ptr %10, align 8, !tbaa !82
  %11 = load ptr, ptr %9, align 8, !tbaa !82
  %12 = getelementptr inbounds i8, ptr %11, i64 0
  %13 = load i8, ptr %12, align 1, !tbaa !76
  %14 = zext i8 %13 to i32
  %15 = load ptr, ptr %7, align 8, !tbaa !82
  %16 = getelementptr inbounds i8, ptr %15, i64 0
  %17 = load i8, ptr %16, align 1, !tbaa !76
  %18 = zext i8 %17 to i32
  %19 = load ptr, ptr %10, align 8, !tbaa !82
  %20 = getelementptr inbounds i8, ptr %19, i64 0
  %21 = load i8, ptr %20, align 1, !tbaa !76
  %22 = zext i8 %21 to i32
  %23 = add nsw i32 %18, %22
  %24 = ashr i32 %23, 1
  %25 = add nsw i32 %14, %24
  %26 = ashr i32 %25, 1
  %27 = trunc i32 %26 to i8
  %28 = load ptr, ptr %6, align 8, !tbaa !82
  %29 = getelementptr inbounds i8, ptr %28, i64 0
  store i8 %27, ptr %29, align 1, !tbaa !76
  %30 = load ptr, ptr %9, align 8, !tbaa !82
  %31 = getelementptr inbounds i8, ptr %30, i64 1
  %32 = load i8, ptr %31, align 1, !tbaa !76
  %33 = zext i8 %32 to i32
  %34 = load ptr, ptr %7, align 8, !tbaa !82
  %35 = getelementptr inbounds i8, ptr %34, i64 1
  %36 = load i8, ptr %35, align 1, !tbaa !76
  %37 = zext i8 %36 to i32
  %38 = load ptr, ptr %10, align 8, !tbaa !82
  %39 = getelementptr inbounds i8, ptr %38, i64 1
  %40 = load i8, ptr %39, align 1, !tbaa !76
  %41 = zext i8 %40 to i32
  %42 = add nsw i32 %37, %41
  %43 = ashr i32 %42, 1
  %44 = add nsw i32 %33, %43
  %45 = ashr i32 %44, 1
  %46 = trunc i32 %45 to i8
  %47 = load ptr, ptr %6, align 8, !tbaa !82
  %48 = getelementptr inbounds i8, ptr %47, i64 1
  store i8 %46, ptr %48, align 1, !tbaa !76
  %49 = load ptr, ptr %9, align 8, !tbaa !82
  %50 = getelementptr inbounds i8, ptr %49, i64 2
  %51 = load i8, ptr %50, align 1, !tbaa !76
  %52 = zext i8 %51 to i32
  %53 = load ptr, ptr %7, align 8, !tbaa !82
  %54 = getelementptr inbounds i8, ptr %53, i64 2
  %55 = load i8, ptr %54, align 1, !tbaa !76
  %56 = zext i8 %55 to i32
  %57 = load ptr, ptr %10, align 8, !tbaa !82
  %58 = getelementptr inbounds i8, ptr %57, i64 2
  %59 = load i8, ptr %58, align 1, !tbaa !76
  %60 = zext i8 %59 to i32
  %61 = add nsw i32 %56, %60
  %62 = ashr i32 %61, 1
  %63 = add nsw i32 %52, %62
  %64 = ashr i32 %63, 1
  %65 = trunc i32 %64 to i8
  %66 = load ptr, ptr %6, align 8, !tbaa !82
  %67 = getelementptr inbounds i8, ptr %66, i64 2
  store i8 %65, ptr %67, align 1, !tbaa !76
  %68 = load ptr, ptr %9, align 8, !tbaa !82
  %69 = getelementptr inbounds i8, ptr %68, i64 3
  %70 = load i8, ptr %69, align 1, !tbaa !76
  %71 = zext i8 %70 to i32
  %72 = load ptr, ptr %7, align 8, !tbaa !82
  %73 = getelementptr inbounds i8, ptr %72, i64 3
  %74 = load i8, ptr %73, align 1, !tbaa !76
  %75 = zext i8 %74 to i32
  %76 = load ptr, ptr %10, align 8, !tbaa !82
  %77 = getelementptr inbounds i8, ptr %76, i64 3
  %78 = load i8, ptr %77, align 1, !tbaa !76
  %79 = zext i8 %78 to i32
  %80 = add nsw i32 %75, %79
  %81 = ashr i32 %80, 1
  %82 = add nsw i32 %71, %81
  %83 = ashr i32 %82, 1
  %84 = trunc i32 %83 to i8
  %85 = load ptr, ptr %6, align 8, !tbaa !82
  %86 = getelementptr inbounds i8, ptr %85, i64 3
  store i8 %84, ptr %86, align 1, !tbaa !76
  ret void
}