; Function Attrs: mustprogress nofree norecurse nosync nounwind willreturn memory(argmem: readwrite) uwtable
define internal void @inv_predict_5(ptr noundef writeonly captures(none) initializes((0, 4)) %0, ptr noundef readonly captures(none) %1, ptr readnone captures(none) %2, ptr noundef readonly captures(none) %3, ptr noundef readonly captures(none) %4) #7 {
  %6 = load i8, ptr %3, align 1, !tbaa !59
  %7 = zext i8 %6 to i16
  %8 = load i8, ptr %1, align 1, !tbaa !59
  %9 = zext i8 %8 to i16
  %10 = load i8, ptr %4, align 1, !tbaa !59
  %11 = zext i8 %10 to i16
  %12 = add nuw nsw i16 %11, %9
  %13 = lshr i16 %12, 1
  %14 = add nuw nsw i16 %13, %7
  %15 = lshr i16 %14, 1
  %16 = trunc nuw i16 %15 to i8
  store i8 %16, ptr %0, align 1, !tbaa !59
  %17 = getelementptr inbounds nuw i8, ptr %3, i64 1
  %18 = load i8, ptr %17, align 1, !tbaa !59
  %19 = zext i8 %18 to i16
  %20 = getelementptr inbounds nuw i8, ptr %1, i64 1
  %21 = load i8, ptr %20, align 1, !tbaa !59
  %22 = zext i8 %21 to i16
  %23 = getelementptr inbounds nuw i8, ptr %4, i64 1
  %24 = load i8, ptr %23, align 1, !tbaa !59
  %25 = zext i8 %24 to i16
  %26 = add nuw nsw i16 %25, %22
  %27 = lshr i16 %26, 1
  %28 = add nuw nsw i16 %27, %19
  %29 = lshr i16 %28, 1
  %30 = trunc nuw i16 %29 to i8
  %31 = getelementptr inbounds nuw i8, ptr %0, i64 1
  store i8 %30, ptr %31, align 1, !tbaa !59
  %32 = getelementptr inbounds nuw i8, ptr %3, i64 2
  %33 = load i8, ptr %32, align 1, !tbaa !59
  %34 = zext i8 %33 to i16
  %35 = getelementptr inbounds nuw i8, ptr %1, i64 2
  %36 = load i8, ptr %35, align 1, !tbaa !59
  %37 = zext i8 %36 to i16
  %38 = getelementptr inbounds nuw i8, ptr %4, i64 2
  %39 = load i8, ptr %38, align 1, !tbaa !59
  %40 = zext i8 %39 to i16
  %41 = add nuw nsw i16 %40, %37
  %42 = lshr i16 %41, 1
  %43 = add nuw nsw i16 %42, %34
  %44 = lshr i16 %43, 1
  %45 = trunc nuw i16 %44 to i8
  %46 = getelementptr inbounds nuw i8, ptr %0, i64 2
  store i8 %45, ptr %46, align 1, !tbaa !59
  %47 = getelementptr inbounds nuw i8, ptr %3, i64 3
  %48 = load i8, ptr %47, align 1, !tbaa !59
  %49 = zext i8 %48 to i16
  %50 = getelementptr inbounds nuw i8, ptr %1, i64 3
  %51 = load i8, ptr %50, align 1, !tbaa !59
  %52 = zext i8 %51 to i16
  %53 = getelementptr inbounds nuw i8, ptr %4, i64 3
  %54 = load i8, ptr %53, align 1, !tbaa !59
  %55 = zext i8 %54 to i16
  %56 = add nuw nsw i16 %55, %52
  %57 = lshr i16 %56, 1
  %58 = add nuw nsw i16 %57, %49
  %59 = lshr i16 %58, 1
  %60 = trunc nuw i16 %59 to i8
  %61 = getelementptr inbounds nuw i8, ptr %0, i64 3
  store i8 %60, ptr %61, align 1, !tbaa !59
  ret void
}